; Function Attrs: mustprogress nounwind uwtable
define dso_local void @_ZN9cmDependsC2EP29cmLocalUnixMakefileGenerator3NSt7__cxx1112basic_stringIcSt11char_traitsIcESaIcEEE(ptr noundef nonnull align 8 dereferenceable(120) %0, ptr noundef %1, ptr noundef %2) unnamed_addr #3 align 2 {
  store ptr getelementptr inbounds ({ [7 x ptr] }, ptr @_ZTV9cmDepends, i64 0, i32 0, i64 2), ptr %0, align 8
  %4 = getelementptr inbounds i8, ptr %0, i64 8
  store ptr %1, ptr %4, align 8
  %5 = getelementptr inbounds i8, ptr %0, i64 16
  store i8 0, ptr %5, align 8
  %6 = getelementptr inbounds i8, ptr %0, i64 24
  store ptr null, ptr %6, align 8
  %7 = getelementptr inbounds i8, ptr %0, i64 32
  tail call void @_ZNSt7__cxx1112basic_stringIcSt11char_traitsIcESaIcEEC1Ev(ptr noundef nonnull align 8 dereferenceable(32) %7) #16
  %8 = getelementptr inbounds i8, ptr %0, i64 64
  tail call void @_ZNSt7__cxx1112basic_stringIcSt11char_traitsIcESaIcEEC1EOS4_(ptr noundef nonnull align 8 dereferenceable(32) %8, ptr noundef nonnull align 8 dereferenceable(32) %2) #16
  %9 = getelementptr inbounds i8, ptr %0, i64 96
  tail call void @llvm.memset.p0.i64(ptr noundef nonnull align 8 dereferenceable(24) %9, i8 0, i64 24, i1 false)
  ret void
}